Certificate:
    Data:
        Version: 3 (0x2)
        Serial Number:
            98:72:eb:c5:8a:fd:68:01
    Signature Algorithm: sha256WithRSAEncryption
        Issuer: C=LV, ST=Riga, O=csharp.company, CN=csharp.company/emailAddress=struggleendlessly@hotmail.com
        Validity
            Not Before: Jan 28 19:30:57 2019 GMT
            Not After : Jan 27 19:30:57 2022 GMT
        Subject: C=LV, ST=Riga, O=csharp.company, CN=csharp.company/emailAddress=struggleendlessly@hotmail.com
        Subject Public Key Info:
            Public Key Algorithm: rsaEncryption
                Public-Key: (2048 bit)
                Modulus:
                    00:da:ec:4c:cb:71:4d:d7:6e:f8:7f:29:7f:5a:25:
                    c0:18:1f:59:16:8f:1d:d3:d2:18:84:a7:2f:80:3e:
                    67:f4:c0:0a:d2:3f:d2:94:df:8f:51:67:2d:cf:03:
                    11:8c:e0:42:ba:5b:ab:83:ed:42:72:9e:94:6c:a5:
                    bf:1f:07:b3:4f:26:51:6b:9d:14:63:39:08:8f:55:
                    63:26:f8:cf:4b:ef:be:5e:22:50:c7:af:38:d0:36:
                    57:50:c9:2a:a1:a8:1e:49:83:a6:c3:4f:ee:29:69:
                    34:a4:20:e0:b9:57:c2:fb:0d:70:9b:00:d1:30:8b:
                    54:7a:e8:32:65:67:1c:bc:1f:1e:ee:e7:1e:30:b1:
                    04:5d:23:d7:38:d7:3e:69:7c:56:a3:e5:d6:26:4d:
                    b7:5c:65:77:70:29:d9:af:29:2c:2d:f4:b6:57:86:
                    90:df:fe:13:dd:ca:bc:29:8c:7b:ee:15:2b:14:e7:
                    d4:34:69:36:09:26:ae:bd:c0:80:df:5c:c6:37:05:
                    eb:29:dc:57:74:79:ed:e3:e0:68:ff:39:42:95:05:
                    63:96:4b:0f:0a:94:9b:93:ab:87:ff:6e:e3:3a:a8:
                    ad:da:cd:c8:cc:d0:b7:d9:6e:b5:c4:bd:90:98:d4:
                    c4:54:c3:a9:78:d4:a1:2e:28:0f:d1:42:da:fe:d1:
                    ed:e3
                Exponent: 65537 (0x10001)
        X509v3 extensions:
            X509v3 Subject Key Identifier: 
                F4:4F:2D:7D:DF:CB:FE:AE:B6:0F:F9:31:F7:A6:F6:A4:EB:A9:C3:DA
            X509v3 Authority Key Identifier: 
                keyid:F4:4F:2D:7D:DF:CB:FE:AE:B6:0F:F9:31:F7:A6:F6:A4:EB:A9:C3:DA

            X509v3 Basic Constraints: critical
                CA:TRUE
    Signature Algorithm: sha256WithRSAEncryption
         23:8c:de:5a:f6:9a:26:b4:f4:45:57:af:4a:da:c8:f9:83:9f:
         85:43:2a:6b:12:e7:ea:c0:b2:61:32:b4:95:20:d3:96:f7:5c:
         7a:57:04:74:0d:a5:85:35:48:0b:1f:b9:d1:e2:51:97:c8:5f:
         70:49:65:0c:91:5b:c1:0e:01:12:6f:fa:0f:69:ad:1f:21:38:
         63:02:e1:3b:28:d7:bd:b3:6a:93:d6:10:ae:6f:95:9a:11:4a:
         04:91:20:8e:7e:ea:70:45:91:e8:0c:0e:8e:06:fc:c1:3a:93:
         3a:4b:05:38:04:34:c9:c7:bd:ca:b8:16:41:1c:34:ea:89:50:
         a2:60:14:b0:fd:95:e3:30:f2:78:a3:23:23:cd:15:66:7b:ab:
         9c:70:3a:09:54:28:59:47:41:8f:8b:80:79:b9:14:41:a7:02:
         99:94:99:7d:71:f6:22:c3:63:b0:9b:4e:fe:db:74:b9:b1:e7:
         84:eb:01:ee:90:a2:22:12:91:19:e3:8f:66:eb:84:50:0d:4f:
         c3:38:30:65:b5:13:78:f2:9c:5a:8b:be:a9:19:af:cd:25:5b:
         a7:ca:36:85:fc:3e:50:54:b3:72:bc:b7:63:53:e7:e2:68:bf:
         c9:d0:56:56:36:00:87:99:61:71:98:2d:dd:c6:4c:80:e1:ee:
         f4:5e:49:df
-----BEGIN CERTIFICATE-----
MIIDzjCCAragAwIBAgIJAJhy68WK/WgBMA0GCSqGSIb3DQEBCwUAMHwxCzAJBgNV
BAYTAkxWMQ0wCwYDVQQIDARSaWdhMRcwFQYDVQQKDA5jc2hhcnAuY29tcGFueTEX
MBUGA1UEAwwOY3NoYXJwLmNvbXBhbnkxLDAqBgkqhkiG9w0BCQEWHXN0cnVnZ2xl
ZW5kbGVzc2x5QGhvdG1haWwuY29tMB4XDTE5MDEyODE5MzA1N1oXDTIyMDEyNzE5
MzA1N1owfDELMAkGA1UEBhMCTFYxDTALBgNVBAgMBFJpZ2ExFzAVBgNVBAoMDmNz
aGFycC5jb21wYW55MRcwFQYDVQQDDA5jc2hhcnAuY29tcGFueTEsMCoGCSqGSIb3
DQEJARYdc3RydWdnbGVlbmRsZXNzbHlAaG90bWFpbC5jb20wggEiMA0GCSqGSIb3
DQEBAQUAA4IBDwAwggEKAoIBAQDa7EzLcU3Xbvh/KX9aJcAYH1kWjx3T0hiEpy+A
Pmf0wArSP9KU349RZy3PAxGM4EK6W6uD7UJynpRspb8fB7NPJlFrnRRjOQiPVWMm
+M9L775eIlDHrzjQNldQySqhqB5Jg6bDT+4paTSkIOC5V8L7DXCbANEwi1R66DJl
Zxy8Hx7u5x4wsQRdI9c41z5pfFaj5dYmTbdcZXdwKdmvKSwt9LZXhpDf/hPdyrwp
jHvuFSsU59Q0aTYJJq69wIDfXMY3Besp3Fd0ee3j4Gj/OUKVBWOWSw8KlJuTq4f/
buM6qK3azcjM0LfZbrXEvZCY1MRUw6l41KEuKA/RQtr+0e3jAgMBAAGjUzBRMB0G
A1UdDgQWBBT0Ty1938v+rrYP+TH3pvak66nD2jAfBgNVHSMEGDAWgBT0Ty1938v+
rrYP+TH3pvak66nD2jAPBgNVHRMBAf8EBTADAQH/MA0GCSqGSIb3DQEBCwUAA4IB
AQAjjN5a9pomtPRFV69K2sj5g5+FQyprEufqwLJhMrSVINOW91x6VwR0DaWFNUgL
H7nR4lGXyF9wSWUMkVvBDgESb/oPaa0fIThjAuE7KNe9s2qT1hCub5WaEUoEkSCO
fupwRZHoDA6OBvzBOpM6SwU4BDTJx73KuBZBHDTqiVCiYBSw/ZXjMPJ4oyMjzRVm
e6uccDoJVChZR0GPi4B5uRRBpwKZlJl9cfYiw2Owm07+23S5seeE6wHukKIiEpEZ
449m64RQDU/DODBltRN48pxai76pGa/NJVunyjaF/D5QVLNyvLdjU+fiaL/J0FZW
NgCHmWFxmC3dxkyA4e70Xknf
-----END CERTIFICATE-----
