Certificate:
    Data:
        Version: 3 (0x2)
        Serial Number:
            98:72:eb:c5:8a:fd:68:03
    Signature Algorithm: sha256WithRSAEncryption
        Issuer: C=LV, ST=Riga, O=csharp.company, CN=csharp.company/emailAddress=struggleendlessly@hotmail.com
        Validity
            Not Before: Jan 28 19:48:06 2019 GMT
            Not After : Jan 28 19:48:06 2020 GMT
        Subject: C=LV, ST=Riga, L=Riga, O=csharp.company, CN=vpn/emailAddress=struggleendlessly@hotmail.com
        Subject Public Key Info:
            Public Key Algorithm: rsaEncryption
                Public-Key: (2048 bit)
                Modulus:
                    00:be:3c:c8:7c:d3:24:20:d0:12:73:2a:cb:80:7d:
                    9f:17:29:9a:b9:53:b8:af:fa:a5:06:3c:40:f9:8e:
                    15:10:b6:37:87:c5:ed:d6:2a:97:b7:58:9b:08:b7:
                    c0:c0:14:9b:2d:24:a5:e3:2d:45:a4:63:c8:80:ae:
                    02:fc:07:49:9e:15:78:c0:b9:82:57:4f:36:1c:f9:
                    22:0e:1f:83:60:66:08:69:b3:28:10:83:fb:57:c9:
                    14:65:f9:b9:49:9f:24:e3:5f:1e:a8:82:5f:82:23:
                    71:a7:46:fb:0a:e5:69:4a:af:f6:43:52:84:9d:cd:
                    ab:5f:20:51:cf:ea:c1:44:4a:7c:04:f7:73:5f:c7:
                    40:b6:5b:97:8f:10:3c:c6:a0:29:fd:e2:42:75:67:
                    bd:e6:a7:c6:a5:77:69:61:e2:9b:58:19:26:89:a2:
                    51:cd:06:e5:f1:79:23:21:5a:6d:b9:ba:c9:05:2c:
                    57:e4:bc:e1:24:1b:e6:53:06:9b:70:9e:c9:ea:0a:
                    81:cf:51:5b:f1:bb:53:c9:91:82:97:76:a1:04:76:
                    0d:0d:a2:30:71:8f:d4:d0:e3:60:8b:39:be:d9:bd:
                    7e:0e:ea:5c:a5:2d:5d:f1:90:f4:81:fc:a2:25:ce:
                    63:19:82:9b:68:15:38:55:35:bb:58:a2:f1:f6:b1:
                    58:11
                Exponent: 65537 (0x10001)
        X509v3 extensions:
            X509v3 Basic Constraints: 
                CA:FALSE
            Netscape Comment: 
                OpenSSL Generated Certificate
            X509v3 Subject Key Identifier: 
                32:99:89:24:04:31:D1:D9:9B:C7:D6:C3:87:53:B1:94:7A:59:AC:50
            X509v3 Authority Key Identifier: 
                keyid:F4:4F:2D:7D:DF:CB:FE:AE:B6:0F:F9:31:F7:A6:F6:A4:EB:A9:C3:DA

    Signature Algorithm: sha256WithRSAEncryption
         9d:96:fb:e6:97:d3:5c:a0:c8:3c:18:e9:d0:bc:eb:b8:ea:32:
         13:16:f9:84:0c:36:7d:07:6b:25:96:4a:7e:4a:b3:e3:94:56:
         f6:b2:b4:ee:77:da:ed:83:8b:5f:17:c8:2a:73:48:6a:7f:4f:
         63:10:0c:0b:0d:af:b1:8f:9c:85:cd:16:0a:08:3b:f9:ae:69:
         ef:15:f5:cf:52:8c:12:3c:19:96:33:21:d4:d4:a1:34:53:98:
         3b:bf:e0:f5:e5:f9:e5:76:25:d1:4c:e6:23:63:13:2a:d0:58:
         0a:d5:f5:8c:28:44:7f:c8:e0:71:19:ed:1b:fa:00:eb:ad:1f:
         d1:03:64:e8:d1:14:e4:88:b0:ec:ec:41:2e:fa:32:3c:34:af:
         6f:72:66:c1:2e:e8:67:d9:d6:27:52:73:a7:3c:ba:c5:bf:ac:
         4b:c4:cf:5f:5f:ae:fd:05:6c:c9:a8:cb:9f:64:ec:ac:a4:98:
         51:6d:d0:73:1b:6a:bb:10:62:86:f8:5e:35:ce:bf:71:15:13:
         a3:d7:e9:7a:67:92:cd:9a:0a:be:34:0b:16:e8:25:5c:30:d0:
         41:0a:ef:bf:82:cd:5b:cf:54:c3:76:c0:b2:91:97:77:79:d8:
         46:c2:9d:e4:63:7d:24:73:75:42:41:96:3a:26:ff:d7:91:fe:
         8a:f5:01:25
-----BEGIN CERTIFICATE-----
MIID+zCCAuOgAwIBAgIJAJhy68WK/WgDMA0GCSqGSIb3DQEBCwUAMHwxCzAJBgNV
BAYTAkxWMQ0wCwYDVQQIDARSaWdhMRcwFQYDVQQKDA5jc2hhcnAuY29tcGFueTEX
MBUGA1UEAwwOY3NoYXJwLmNvbXBhbnkxLDAqBgkqhkiG9w0BCQEWHXN0cnVnZ2xl
ZW5kbGVzc2x5QGhvdG1haWwuY29tMB4XDTE5MDEyODE5NDgwNloXDTIwMDEyODE5
NDgwNlowgYAxCzAJBgNVBAYTAkxWMQ0wCwYDVQQIDARSaWdhMQ0wCwYDVQQHDARS
aWdhMRcwFQYDVQQKDA5jc2hhcnAuY29tcGFueTEMMAoGA1UEAwwDdnBuMSwwKgYJ
KoZIhvcNAQkBFh1zdHJ1Z2dsZWVuZGxlc3NseUBob3RtYWlsLmNvbTCCASIwDQYJ
KoZIhvcNAQEBBQADggEPADCCAQoCggEBAL48yHzTJCDQEnMqy4B9nxcpmrlTuK/6
pQY8QPmOFRC2N4fF7dYql7dYmwi3wMAUmy0kpeMtRaRjyICuAvwHSZ4VeMC5gldP
Nhz5Ig4fg2BmCGmzKBCD+1fJFGX5uUmfJONfHqiCX4IjcadG+wrlaUqv9kNShJ3N
q18gUc/qwURKfAT3c1/HQLZbl48QPMagKf3iQnVnveanxqV3aWHim1gZJomiUc0G
5fF5IyFabbm6yQUsV+S84SQb5lMGm3CeyeoKgc9RW/G7U8mRgpd2oQR2DQ2iMHGP
1NDjYIs5vtm9fg7qXKUtXfGQ9IH8oiXOYxmCm2gVOFU1u1ii8faxWBECAwEAAaN7
MHkwCQYDVR0TBAIwADAsBglghkgBhvhCAQ0EHxYdT3BlblNTTCBHZW5lcmF0ZWQg
Q2VydGlmaWNhdGUwHQYDVR0OBBYEFDKZiSQEMdHZm8fWw4dTsZR6WaxQMB8GA1Ud
IwQYMBaAFPRPLX3fy/6utg/5Mfem9qTrqcPaMA0GCSqGSIb3DQEBCwUAA4IBAQCd
lvvml9NcoMg8GOnQvOu46jITFvmEDDZ9B2sllkp+SrPjlFb2srTud9rtg4tfF8gq
c0hqf09jEAwLDa+xj5yFzRYKCDv5rmnvFfXPUowSPBmWMyHU1KE0U5g7v+D15fnl
diXRTOYjYxMq0FgK1fWMKER/yOBxGe0b+gDrrR/RA2To0RTkiLDs7EEu+jI8NK9v
cmbBLuhn2dYnUnOnPLrFv6xLxM9fX679BWzJqMufZOyspJhRbdBzG2q7EGKG+F41
zr9xFROj1+l6Z5LNmgq+NAsW6CVcMNBBCu+/gs1bz1TDdsCykZd3edhGwp3kY30k
c3VCQZY6Jv/Xkf6K9QEl
-----END CERTIFICATE-----
