Certificate:
    Data:
        Version: 3 (0x2)
        Serial Number:
            98:72:eb:c5:8a:fd:68:02
    Signature Algorithm: sha256WithRSAEncryption
        Issuer: C=LV, ST=Riga, O=csharp.company, CN=csharp.company/emailAddress=struggleendlessly@hotmail.com
        Validity
            Not Before: Jan 28 19:32:57 2019 GMT
            Not After : Jan 28 19:32:57 2020 GMT
        Subject: C=LV, ST=Riga, L=Riga, O=csharp.company, CN=csharp.company/emailAddress=struggleendlessly@hotmail.com
        Subject Public Key Info:
            Public Key Algorithm: rsaEncryption
                Public-Key: (2048 bit)
                Modulus:
                    00:e1:10:c0:8e:ce:52:e5:b1:1e:40:c0:69:e4:3c:
                    01:35:6f:9d:9d:60:46:2a:bd:70:94:dc:66:69:78:
                    8e:74:d7:73:89:64:93:83:38:11:e1:71:c9:9b:d3:
                    01:3b:89:9f:71:dd:b3:c5:b6:a8:04:6a:18:98:81:
                    af:de:80:15:1b:a8:ec:ee:cf:58:b9:5c:94:7e:ce:
                    5f:16:7f:52:7c:a7:a7:9c:be:9b:a6:f2:86:d5:ba:
                    57:5b:22:92:77:15:e5:9b:11:ce:38:b1:9c:3f:fc:
                    16:52:f4:34:07:72:cf:3b:8c:44:74:45:ce:e6:b3:
                    a3:45:dc:db:8a:9e:60:d6:3b:3d:72:c0:5c:0c:d2:
                    56:df:4b:41:c7:d2:19:c5:82:40:53:09:92:f0:98:
                    96:0b:4f:67:2f:b5:04:06:13:b9:18:98:34:61:99:
                    a3:e1:9e:90:13:aa:f8:2f:f0:e4:f0:cb:d3:23:86:
                    1c:59:01:1e:bc:6e:c6:f1:34:e4:de:3c:8a:33:bb:
                    b8:87:7e:37:ef:c9:8d:cb:2e:5a:48:03:fc:5d:92:
                    a2:11:b0:fa:2a:b9:ff:91:aa:11:63:9d:f4:be:2c:
                    bc:26:2e:65:73:55:04:94:4f:78:43:1b:09:f0:5e:
                    90:8c:4b:41:a9:84:9f:1e:ed:27:ba:cf:7c:52:c9:
                    23:af
                Exponent: 65537 (0x10001)
        X509v3 extensions:
            X509v3 Basic Constraints: 
                CA:FALSE
            Netscape Comment: 
                OpenSSL Generated Certificate
            X509v3 Subject Key Identifier: 
                5D:49:BD:85:0E:50:D6:98:D7:BC:17:99:B5:38:05:EB:66:B8:BB:4B
            X509v3 Authority Key Identifier: 
                keyid:F4:4F:2D:7D:DF:CB:FE:AE:B6:0F:F9:31:F7:A6:F6:A4:EB:A9:C3:DA

    Signature Algorithm: sha256WithRSAEncryption
         1c:8c:b6:d5:1d:78:1c:8c:37:a9:e6:8b:5f:72:5e:6b:39:73:
         dd:d2:b0:0c:2d:12:1d:ca:ab:60:90:e5:0c:e6:9d:d6:96:6a:
         64:08:1e:6e:99:6f:91:a1:b1:f8:4e:79:6a:56:98:36:67:b7:
         7a:51:6c:23:31:ec:32:8b:9e:aa:da:2d:77:97:76:ff:c6:45:
         ff:28:40:d7:8d:3d:24:35:d1:e6:96:7e:f0:ee:f9:62:f5:d3:
         eb:24:c2:0d:ec:ce:9f:5b:79:a2:f5:f2:3c:9c:91:84:fa:1c:
         c7:63:b8:c6:c7:a9:9f:02:88:4f:86:38:7f:3f:f8:95:dc:16:
         5c:d5:d6:27:70:74:c7:ae:0c:5d:88:6e:e6:43:9b:a4:b3:7e:
         81:7e:28:5e:93:6c:26:5a:00:fa:7e:91:d1:25:1f:7c:22:c8:
         b7:37:8d:c9:0d:c9:6a:f3:6f:a8:28:8d:7f:ef:be:33:ec:72:
         2d:a5:b4:bb:b8:da:d5:f9:3f:07:ae:2c:b7:2d:87:95:f6:ff:
         82:4d:47:e4:e8:6e:0c:70:2e:8c:45:28:51:d1:a1:7b:c4:eb:
         55:83:5a:13:9e:36:fe:39:0c:18:78:9f:e0:71:77:31:56:c2:
         16:75:ea:21:fb:85:bf:8b:f2:91:65:88:09:3c:61:79:78:59:
         44:30:c1:9e
-----BEGIN CERTIFICATE-----
MIIEBjCCAu6gAwIBAgIJAJhy68WK/WgCMA0GCSqGSIb3DQEBCwUAMHwxCzAJBgNV
BAYTAkxWMQ0wCwYDVQQIDARSaWdhMRcwFQYDVQQKDA5jc2hhcnAuY29tcGFueTEX
MBUGA1UEAwwOY3NoYXJwLmNvbXBhbnkxLDAqBgkqhkiG9w0BCQEWHXN0cnVnZ2xl
ZW5kbGVzc2x5QGhvdG1haWwuY29tMB4XDTE5MDEyODE5MzI1N1oXDTIwMDEyODE5
MzI1N1owgYsxCzAJBgNVBAYTAkxWMQ0wCwYDVQQIDARSaWdhMQ0wCwYDVQQHDARS
aWdhMRcwFQYDVQQKDA5jc2hhcnAuY29tcGFueTEXMBUGA1UEAwwOY3NoYXJwLmNv
bXBhbnkxLDAqBgkqhkiG9w0BCQEWHXN0cnVnZ2xlZW5kbGVzc2x5QGhvdG1haWwu
Y29tMIIBIjANBgkqhkiG9w0BAQEFAAOCAQ8AMIIBCgKCAQEA4RDAjs5S5bEeQMBp
5DwBNW+dnWBGKr1wlNxmaXiOdNdziWSTgzgR4XHJm9MBO4mfcd2zxbaoBGoYmIGv
3oAVG6js7s9YuVyUfs5fFn9SfKennL6bpvKG1bpXWyKSdxXlmxHOOLGcP/wWUvQ0
B3LPO4xEdEXO5rOjRdzbip5g1js9csBcDNJW30tBx9IZxYJAUwmS8JiWC09nL7UE
BhO5GJg0YZmj4Z6QE6r4L/Dk8MvTI4YcWQEevG7G8TTk3jyKM7u4h34378mNyy5a
SAP8XZKiEbD6Krn/kaoRY530viy8Ji5lc1UElE94QxsJ8F6QjEtBqYSfHu0nus98
UskjrwIDAQABo3sweTAJBgNVHRMEAjAAMCwGCWCGSAGG+EIBDQQfFh1PcGVuU1NM
IEdlbmVyYXRlZCBDZXJ0aWZpY2F0ZTAdBgNVHQ4EFgQUXUm9hQ5Q1pjXvBeZtTgF
62a4u0swHwYDVR0jBBgwFoAU9E8tfd/L/q62D/kx96b2pOupw9owDQYJKoZIhvcN
AQELBQADggEBAByMttUdeByMN6nmi19yXms5c93SsAwtEh3Kq2CQ5QzmndaWamQI
Hm6Zb5GhsfhOeWpWmDZnt3pRbCMx7DKLnqraLXeXdv/GRf8oQNeNPSQ10eaWfvDu
+WL10+skwg3szp9beaL18jyckYT6HMdjuMbHqZ8CiE+GOH8/+JXcFlzV1idwdMeu
DF2IbuZDm6SzfoF+KF6TbCZaAPp+kdElH3wiyLc3jckNyWrzb6gojX/vvjPsci2l
tLu42tX5PweuLLcth5X2/4JNR+TobgxwLoxFKFHRoXvE61WDWhOeNv45DBh4n+Bx
dzFWwhZ16iH7hb+L8pFliAk8YXl4WUQwwZ4=
-----END CERTIFICATE-----
